; ModuleID = '19/36.c'
source_filename = "19/36.c"
target datalayout = "e-m:e-p270:32:32-p271:32:32-p272:64:64-i64:64-f80:128-n8:16:32:64-S128"
target triple = "x86_64-pc-linux-gnu"

@str = common dso_local global [100 x i8] zeroinitializer, align 16
@c1 = common dso_local global [100 x i8] zeroinitializer, align 16
@c2 = common dso_local global [100 x i8] zeroinitializer, align 16
@.str = private unnamed_addr constant [3 x i8] c"%s\00", align 1
@.str.1 = private unnamed_addr constant [3 x i8] c"%c\00", align 1
@.str.2 = private unnamed_addr constant [2 x i8] c"\0A\00", align 1

; Function Attrs: noinline nounwind uwtable
define dso_local i32 @pd(i32 %0) #0 {
  %2 = alloca i32, align 4
  %3 = alloca i32, align 4
  %4 = alloca i32, align 4
  %5 = alloca i32, align 4
  %6 = alloca i32, align 4
  %7 = alloca i8, align 1
  store i32 %0, i32* %3, align 4
  store i32 0, i32* %6, align 4
  store i32 0, i32* %4, align 4
  br label %8

8:                                                ; preds = %57, %1
  %9 = load i32, i32* %4, align 4
  %10 = icmp slt i32 %9, 1
  br i1 %10, label %11, label %59

11:                                               ; preds = %8
  %12 = load i32, i32* %3, align 4
  %13 = sext i32 %12 to i64
  %14 = getelementptr inbounds [100 x i8], [100 x i8]* @str, i64 0, i64 %13
  %15 = load i8, i8* %14, align 1
  %16 = sext i8 %15 to i32
  %17 = load i32, i32* %6, align 4
  %18 = sext i32 %17 to i64
  %19 = getelementptr inbounds [100 x i8], [100 x i8]* @c1, i64 0, i64 %18
  %20 = load i8, i8* %19, align 1
  %21 = sext i8 %20 to i32
  %22 = icmp ne i32 %16, %21
  br i1 %22, label %23, label %24

23:                                               ; preds = %11
  store i32 0, i32* %2, align 4
  br label %59

24:                                               ; preds = %11
  %25 = load i32, i32* %6, align 4
  %26 = add nsw i32 %25, 1
  store i32 %26, i32* %6, align 4
  %27 = load i32, i32* %3, align 4
  %28 = add nsw i32 %27, 1
  %29 = sext i32 %28 to i64
  %30 = getelementptr inbounds [100 x i8], [100 x i8]* @str, i64 0, i64 %29
  %31 = load i8, i8* %30, align 1
  store i8 %31, i8* %7, align 1
  %32 = load i8, i8* %7, align 1
  %33 = sext i8 %32 to i32
  %34 = icmp eq i32 %33, 32
  br i1 %34, label %47, label %35

35:                                               ; preds = %24
  %36 = load i8, i8* %7, align 1
  %37 = sext i8 %36 to i32
  %38 = icmp eq i32 %37, 9
  br i1 %38, label %47, label %39

39:                                               ; preds = %35
  %40 = load i8, i8* %7, align 1
  %41 = sext i8 %40 to i32
  %42 = icmp eq i32 %41, 13
  br i1 %42, label %47, label %43

43:                                               ; preds = %39
  %44 = load i8, i8* %7, align 1
  %45 = sext i8 %44 to i32
  %46 = icmp eq i32 %45, 10
  br i1 %46, label %47, label %54

47:                                               ; preds = %43, %39, %35, %24
  %48 = load i32, i32* %6, align 4
  %49 = sext i32 %48 to i64
  %50 = call i64 @strlen(i8* getelementptr inbounds ([100 x i8], [100 x i8]* @c1, i64 0, i64 0)) #3
  %51 = icmp eq i64 %49, %50
  br i1 %51, label %52, label %53

52:                                               ; preds = %47
  store i32 1, i32* %2, align 4
  br label %59

53:                                               ; preds = %47
  store i32 0, i32* %2, align 4
  br label %59

54:                                               ; preds = %43
  %55 = load i32, i32* %3, align 4
  %56 = add nsw i32 %55, 1
  store i32 %56, i32* %3, align 4
  br label %57

57:                                               ; preds = %54
  %58 = load i32, i32* %4, align 4
  br label %8

59:                                               ; preds = %23, %52, %53, %8
  %60 = load i32, i32* %2, align 4
  ret i32 %60
}

; Function Attrs: nounwind readonly
declare dso_local i64 @strlen(i8*) #1

; Function Attrs: noinline nounwind uwtable
define dso_local i32 @main() #0 {
  %1 = alloca i32, align 4
  %2 = alloca i8, align 1
  %3 = alloca i32, align 4
  %4 = alloca i32, align 4
  %5 = alloca i32, align 4
  %6 = alloca i32, align 4
  %7 = alloca i32, align 4
  store i32 0, i32* %1, align 4
  %8 = call i32 (i8*, ...) bitcast (i32 (...)* @gets to i32 (i8*, ...)*)(i8* getelementptr inbounds ([100 x i8], [100 x i8]* @str, i64 0, i64 0))
  %9 = call i32 (i8*, ...) bitcast (i32 (...)* @gets to i32 (i8*, ...)*)(i8* getelementptr inbounds ([100 x i8], [100 x i8]* @c1, i64 0, i64 0))
  %10 = call i32 (i8*, ...) bitcast (i32 (...)* @gets to i32 (i8*, ...)*)(i8* getelementptr inbounds ([100 x i8], [100 x i8]* @c2, i64 0, i64 0))
  %11 = call i64 @strlen(i8* getelementptr inbounds ([100 x i8], [100 x i8]* @str, i64 0, i64 0)) #3
  %12 = trunc i64 %11 to i32
  store i32 %12, i32* %5, align 4
  store i32 0, i32* %3, align 4
  br label %13

13:                                               ; preds = %78, %0
  %14 = load i32, i32* %3, align 4
  %15 = load i32, i32* %5, align 4
  %16 = icmp slt i32 %14, %15
  br i1 %16, label %17, label %81

17:                                               ; preds = %13
  %18 = load i32, i32* %3, align 4
  %19 = icmp sgt i32 %18, 0
  br i1 %19, label %20, label %26

20:                                               ; preds = %17
  %21 = load i32, i32* %3, align 4
  %22 = sub nsw i32 %21, 1
  %23 = sext i32 %22 to i64
  %24 = getelementptr inbounds [100 x i8], [100 x i8]* @str, i64 0, i64 %23
  %25 = load i8, i8* %24, align 1
  store i8 %25, i8* %2, align 1
  br label %26

26:                                               ; preds = %20, %17
  %27 = load i32, i32* %3, align 4
  %28 = icmp eq i32 %27, 0
  br i1 %28, label %29, label %30

29:                                               ; preds = %26
  store i8 0, i8* %2, align 1
  br label %30

30:                                               ; preds = %29, %26
  %31 = load i32, i32* %3, align 4
  %32 = icmp eq i32 %31, 0
  br i1 %32, label %49, label %33

33:                                               ; preds = %30
  %34 = load i8, i8* %2, align 1
  %35 = sext i8 %34 to i32
  %36 = icmp eq i32 %35, 32
  br i1 %36, label %49, label %37

37:                                               ; preds = %33
  %38 = load i8, i8* %2, align 1
  %39 = sext i8 %38 to i32
  %40 = icmp eq i32 %39, 9
  br i1 %40, label %49, label %41

41:                                               ; preds = %37
  %42 = load i8, i8* %2, align 1
  %43 = sext i8 %42 to i32
  %44 = icmp eq i32 %43, 13
  br i1 %44, label %49, label %45

45:                                               ; preds = %41
  %46 = load i8, i8* %2, align 1
  %47 = sext i8 %46 to i32
  %48 = icmp eq i32 %47, 10
  br i1 %48, label %49, label %70

49:                                               ; preds = %45, %41, %37, %33, %30
  %50 = load i32, i32* %3, align 4
  %51 = call i32 @pd(i32 %50)
  store i32 %51, i32* %6, align 4
  store i32 0, i32* %7, align 4
  %52 = load i32, i32* %6, align 4
  %53 = icmp eq i32 %52, 1
  br i1 %53, label %54, label %62

54:                                               ; preds = %49
  %55 = call i32 (i8*, ...) @printf(i8* getelementptr inbounds ([3 x i8], [3 x i8]* @.str, i64 0, i64 0), i8* getelementptr inbounds ([100 x i8], [100 x i8]* @c2, i64 0, i64 0))
  %56 = load i32, i32* %3, align 4
  %57 = sext i32 %56 to i64
  %58 = call i64 @strlen(i8* getelementptr inbounds ([100 x i8], [100 x i8]* @c1, i64 0, i64 0)) #3
  %59 = add i64 %57, %58
  %60 = sub i64 %59, 1
  %61 = trunc i64 %60 to i32
  store i32 %61, i32* %3, align 4
  br label %69

62:                                               ; preds = %49
  %63 = load i32, i32* %3, align 4
  %64 = sext i32 %63 to i64
  %65 = getelementptr inbounds [100 x i8], [100 x i8]* @str, i64 0, i64 %64
  %66 = load i8, i8* %65, align 1
  %67 = sext i8 %66 to i32
  %68 = call i32 (i8*, ...) @printf(i8* getelementptr inbounds ([3 x i8], [3 x i8]* @.str.1, i64 0, i64 0), i32 %67)
  br label %69

69:                                               ; preds = %62, %54
  br label %77

70:                                               ; preds = %45
  %71 = load i32, i32* %3, align 4
  %72 = sext i32 %71 to i64
  %73 = getelementptr inbounds [100 x i8], [100 x i8]* @str, i64 0, i64 %72
  %74 = load i8, i8* %73, align 1
  %75 = sext i8 %74 to i32
  %76 = call i32 (i8*, ...) @printf(i8* getelementptr inbounds ([3 x i8], [3 x i8]* @.str.1, i64 0, i64 0), i32 %75)
  br label %77

77:                                               ; preds = %70, %69
  br label %78

78:                                               ; preds = %77
  %79 = load i32, i32* %3, align 4
  %80 = add nsw i32 %79, 1
  store i32 %80, i32* %3, align 4
  br label %13

81:                                               ; preds = %13
  %82 = call i32 (i8*, ...) @printf(i8* getelementptr inbounds ([2 x i8], [2 x i8]* @.str.2, i64 0, i64 0))
  %83 = load i32, i32* %1, align 4
  ret i32 %83
}

declare dso_local i32 @gets(...) #2

declare dso_local i32 @printf(i8*, ...) #2


!llvm.module.flags = !{!0}
!llvm.ident = !{!1}

!0 = !{i32 1, !"wchar_size", i32 4}
!1 = !{!"clang version 10.0.0-4ubuntu1 "}
